target datalayout = "e-m:e-p270:32:32-p271:32:32-p272:64:64-i64:64-i128:128-f80:128-n8:16:32:64-S128"
target triple = "x86_64-pc-linux-gnu"

%struct.mbedtls_ecp_curve_info = type { i32, i16, i16, ptr }

@mbedtls_ecp_grp_id_list.init_done = internal global i32 0, align 4
@ecp_supported_grp_id = internal global [14 x i32] zeroinitializer, align 16

; Function Attrs: nounwind uwtable
define hidden ptr @mbedtls_ecp_curve_list() #0 {
  ret ptr @ecp_supported_curves
}

; Function Attrs: nounwind uwtable
define hidden ptr @mbedtls_ecp_grp_id_list() #0 {
  %1 = alloca i64, align 8
  %2 = alloca ptr, align 8
  %3 = load i32, ptr @mbedtls_ecp_grp_id_list.init_done, align 4, !tbaa !3
  %4 = icmp ne i32 %3, 0
  br i1 %4, label %25, label %5

5:                                                ; preds = %0
  call void @llvm.lifetime.start.p0(i64 8, ptr %1) #11
  store i64 0, ptr %1, align 8, !tbaa !7
  call void @llvm.lifetime.start.p0(i64 8, ptr %2) #11
  %6 = call ptr @mbedtls_ecp_curve_list()
  store ptr %6, ptr %2, align 8, !tbaa !9
  br label %7

7:                                                ; preds = %19, %5
  %8 = load ptr, ptr %2, align 8, !tbaa !9
  %9 = getelementptr inbounds nuw %struct.mbedtls_ecp_curve_info, ptr %8, i32 0, i32 0
  %10 = load i32, ptr %9, align 8, !tbaa !12
  %11 = icmp ne i32 %10, 0
  br i1 %11, label %12, label %22

12:                                               ; preds = %7
  %13 = load ptr, ptr %2, align 8, !tbaa !9
  %14 = getelementptr inbounds nuw %struct.mbedtls_ecp_curve_info, ptr %13, i32 0, i32 0
  %15 = load i32, ptr %14, align 8, !tbaa !12
  %16 = load i64, ptr %1, align 8, !tbaa !7
  %17 = add i64 %16, 1
  store i64 %17, ptr %1, align 8, !tbaa !7
  %18 = getelementptr inbounds nuw [14 x i32], ptr @ecp_supported_grp_id, i64 0, i64 %16
  store i32 %15, ptr %18, align 4, !tbaa !3
  br label %19

19:                                               ; preds = %12
  %20 = load ptr, ptr %2, align 8, !tbaa !9
  %21 = getelementptr inbounds nuw %struct.mbedtls_ecp_curve_info, ptr %20, i32 1
  store ptr %21, ptr %2, align 8, !tbaa !9
  br label %7, !llvm.loop !16

22:                                               ; preds = %7
  %23 = load i64, ptr %1, align 8, !tbaa !7
  %24 = getelementptr inbounds nuw [14 x i32], ptr @ecp_supported_grp_id, i64 0, i64 %23
  store i32 0, ptr %24, align 4, !tbaa !3
  store i32 1, ptr @mbedtls_ecp_grp_id_list.init_done, align 4, !tbaa !3
  call void @llvm.lifetime.end.p0(i64 8, ptr %2) #11
  call void @llvm.lifetime.end.p0(i64 8, ptr %1) #11
  br label %25

25:                                               ; preds = %22, %0
  ret ptr @ecp_supported_grp_id
}