; Function Attrs: nofree norecurse nosync nounwind memory(readwrite, argmem: none, inaccessiblemem: none) uwtable
define hidden noundef nonnull ptr @mbedtls_ecp_grp_id_list() local_unnamed_addr #1 {
  %.b = load i1, ptr @mbedtls_ecp_grp_id_list.init_done, align 4
  br i1 %.b, label %7, label %.preheader

.preheader:                                       ; preds = %0, %.preheader
  %1 = phi i32 [ %5, %.preheader ], [ 5, %0 ]
  %.07 = phi ptr [ %4, %.preheader ], [ @ecp_supported_curves, %0 ]
  %.046 = phi i64 [ %2, %.preheader ], [ 0, %0 ]
  %2 = add nuw nsw i64 %.046, 1
  %3 = getelementptr inbounds nuw [14 x i32], ptr @ecp_supported_grp_id, i64 0, i64 %.046
  store i32 %1, ptr %3, align 4, !tbaa !3
  %4 = getelementptr inbounds nuw i8, ptr %.07, i64 16
  %5 = load i32, ptr %4, align 8, !tbaa !7
  %exitcond = icmp eq i64 %2, 13
  br i1 %exitcond, label %6, label %.preheader, !llvm.loop !12

6:                                                ; preds = %.preheader
  store i32 0, ptr getelementptr inbounds nuw (i8, ptr @ecp_supported_grp_id, i64 52), align 4, !tbaa !3
  store i1 true, ptr @mbedtls_ecp_grp_id_list.init_done, align 4
  br label %7

7:                                                ; preds = %6, %0
  ret ptr @ecp_supported_grp_id
}